target datalayout = "e-m:e-p270:32:32-p271:32:32-p272:64:64-i64:64-i128:128-f80:128-n8:16:32:64-S128"
target triple = "x86_64-pc-linux-gnu"

%"struct.duckdb_brotli::BrotliOnePassArena" = type { [256 x i8], [256 x i16], [128 x i8], [128 x i16], [128 x i32], [512 x i8], i64, [513 x %"struct.duckdb_brotli::HuffmanTree"], [256 x i32], [704 x i8], [64 x i16] }
%"struct.duckdb_brotli::HuffmanTree" = type { i32, i16, i16 }

; Function Attrs: mustprogress uwtable
define internal void @_ZL30BuildAndStoreCommandPrefixCodePN13duckdb_brotli18BrotliOnePassArenaEPmPh(ptr noundef %0, ptr noundef %1, ptr noundef %2) #0 {
  %4 = alloca ptr, align 8
  %5 = alloca ptr, align 8
  %6 = alloca ptr, align 8
  %7 = alloca ptr, align 8
  %8 = alloca ptr, align 8
  %9 = alloca ptr, align 8
  %10 = alloca ptr, align 8
  %11 = alloca ptr, align 8
  %12 = alloca i64, align 8
  store ptr %0, ptr %4, align 8, !tbaa !3
  store ptr %1, ptr %5, align 8, !tbaa !16
  store ptr %2, ptr %6, align 8, !tbaa !8
  call void @llvm.lifetime.start.p0(i64 8, ptr %7) #12
  %13 = load ptr, ptr %4, align 8, !tbaa !3
  %14 = getelementptr inbounds nuw %"struct.duckdb_brotli::BrotliOnePassArena", ptr %13, i32 0, i32 4
  %15 = getelementptr inbounds [128 x i32], ptr %14, i64 0, i64 0
  store ptr %15, ptr %7, align 8, !tbaa !14
  call void @llvm.lifetime.start.p0(i64 8, ptr %8) #12
  %16 = load ptr, ptr %4, align 8, !tbaa !3
  %17 = getelementptr inbounds nuw %"struct.duckdb_brotli::BrotliOnePassArena", ptr %16, i32 0, i32 2
  %18 = getelementptr inbounds [128 x i8], ptr %17, i64 0, i64 0
  store ptr %18, ptr %8, align 8, !tbaa !8
  call void @llvm.lifetime.start.p0(i64 8, ptr %9) #12
  %19 = load ptr, ptr %4, align 8, !tbaa !3
  %20 = getelementptr inbounds nuw %"struct.duckdb_brotli::BrotliOnePassArena", ptr %19, i32 0, i32 3
  %21 = getelementptr inbounds [128 x i16], ptr %20, i64 0, i64 0
  store ptr %21, ptr %9, align 8, !tbaa !20
  call void @llvm.lifetime.start.p0(i64 8, ptr %10) #12
  %22 = load ptr, ptr %4, align 8, !tbaa !3
  %23 = getelementptr inbounds nuw %"struct.duckdb_brotli::BrotliOnePassArena", ptr %22, i32 0, i32 9
  %24 = getelementptr inbounds [704 x i8], ptr %23, i64 0, i64 0
  store ptr %24, ptr %10, align 8, !tbaa !8
  call void @llvm.lifetime.start.p0(i64 8, ptr %11) #12
  %25 = load ptr, ptr %4, align 8, !tbaa !3
  %26 = getelementptr inbounds nuw %"struct.duckdb_brotli::BrotliOnePassArena", ptr %25, i32 0, i32 10
  %27 = getelementptr inbounds [64 x i16], ptr %26, i64 0, i64 0
  store ptr %27, ptr %11, align 8, !tbaa !20
  %28 = load ptr, ptr %10, align 8, !tbaa !8
  call void @llvm.memset.p0.i64(ptr align 1 %28, i8 0, i64 704, i1 false)
  %29 = load ptr, ptr %7, align 8, !tbaa !14
  %30 = load ptr, ptr %4, align 8, !tbaa !3
  %31 = getelementptr inbounds nuw %"struct.duckdb_brotli::BrotliOnePassArena", ptr %30, i32 0, i32 7
  %32 = getelementptr inbounds [513 x %"struct.duckdb_brotli::HuffmanTree"], ptr %31, i64 0, i64 0
  %33 = load ptr, ptr %8, align 8, !tbaa !8
  call void @_ZN13duckdb_brotli23BrotliCreateHuffmanTreeEPKjmiPNS_11HuffmanTreeEPh(ptr noundef %29, i64 noundef 64, i32 noundef 15, ptr noundef %32, ptr noundef %33)
  %34 = load ptr, ptr %7, align 8, !tbaa !14
  %35 = getelementptr inbounds i32, ptr %34, i64 64
  %36 = load ptr, ptr %4, align 8, !tbaa !3
  %37 = getelementptr inbounds nuw %"struct.duckdb_brotli::BrotliOnePassArena", ptr %36, i32 0, i32 7
  %38 = getelementptr inbounds [513 x %"struct.duckdb_brotli::HuffmanTree"], ptr %37, i64 0, i64 0
  %39 = load ptr, ptr %8, align 8, !tbaa !8
  %40 = getelementptr inbounds i8, ptr %39, i64 64
  call void @_ZN13duckdb_brotli23BrotliCreateHuffmanTreeEPKjmiPNS_11HuffmanTreeEPh(ptr noundef %35, i64 noundef 64, i32 noundef 14, ptr noundef %38, ptr noundef %40)
  %41 = load ptr, ptr %10, align 8, !tbaa !8
  %42 = load ptr, ptr %8, align 8, !tbaa !8
  call void @llvm.memcpy.p0.p0.i64(ptr align 1 %41, ptr align 1 %42, i64 24, i1 false)
  %43 = load ptr, ptr %10, align 8, !tbaa !8
  %44 = getelementptr inbounds i8, ptr %43, i64 24
  %45 = load ptr, ptr %8, align 8, !tbaa !8
  %46 = getelementptr inbounds i8, ptr %45, i64 40
  call void @llvm.memcpy.p0.p0.i64(ptr align 1 %44, ptr align 1 %46, i64 8, i1 false)
  %47 = load ptr, ptr %10, align 8, !tbaa !8
  %48 = getelementptr inbounds i8, ptr %47, i64 32
  %49 = load ptr, ptr %8, align 8, !tbaa !8
  %50 = getelementptr inbounds i8, ptr %49, i64 24
  call void @llvm.memcpy.p0.p0.i64(ptr align 1 %48, ptr align 1 %50, i64 8, i1 false)
  %51 = load ptr, ptr %10, align 8, !tbaa !8
  %52 = getelementptr inbounds i8, ptr %51, i64 40
  %53 = load ptr, ptr %8, align 8, !tbaa !8
  %54 = getelementptr inbounds i8, ptr %53, i64 48
  call void @llvm.memcpy.p0.p0.i64(ptr align 1 %52, ptr align 1 %54, i64 8, i1 false)
  %55 = load ptr, ptr %10, align 8, !tbaa !8
  %56 = getelementptr inbounds i8, ptr %55, i64 48
  %57 = load ptr, ptr %8, align 8, !tbaa !8
  %58 = getelementptr inbounds i8, ptr %57, i64 32
  call void @llvm.memcpy.p0.p0.i64(ptr align 1 %56, ptr align 1 %58, i64 8, i1 false)
  %59 = load ptr, ptr %10, align 8, !tbaa !8
  %60 = getelementptr inbounds i8, ptr %59, i64 56
  %61 = load ptr, ptr %8, align 8, !tbaa !8
  %62 = getelementptr inbounds i8, ptr %61, i64 56
  call void @llvm.memcpy.p0.p0.i64(ptr align 1 %60, ptr align 1 %62, i64 8, i1 false)
  %63 = load ptr, ptr %10, align 8, !tbaa !8
  %64 = load ptr, ptr %11, align 8, !tbaa !20
  call void @_ZN13duckdb_brotli31BrotliConvertBitDepthsToSymbolsEPKhmPt(ptr noundef %63, i64 noundef 64, ptr noundef %64)
  %65 = load ptr, ptr %9, align 8, !tbaa !20
  %66 = load ptr, ptr %11, align 8, !tbaa !20
  call void @llvm.memcpy.p0.p0.i64(ptr align 2 %65, ptr align 2 %66, i64 48, i1 false)
  %67 = load ptr, ptr %9, align 8, !tbaa !20
  %68 = getelementptr inbounds i16, ptr %67, i64 24
  %69 = load ptr, ptr %11, align 8, !tbaa !20
  %70 = getelementptr inbounds i16, ptr %69, i64 32
  call void @llvm.memcpy.p0.p0.i64(ptr align 2 %68, ptr align 2 %70, i64 16, i1 false)
  %71 = load ptr, ptr %9, align 8, !tbaa !20
  %72 = getelementptr inbounds i16, ptr %71, i64 32
  %73 = load ptr, ptr %11, align 8, !tbaa !20
  %74 = getelementptr inbounds i16, ptr %73, i64 48
  call void @llvm.memcpy.p0.p0.i64(ptr align 2 %72, ptr align 2 %74, i64 16, i1 false)
  %75 = load ptr, ptr %9, align 8, !tbaa !20
  %76 = getelementptr inbounds i16, ptr %75, i64 40
  %77 = load ptr, ptr %11, align 8, !tbaa !20
  %78 = getelementptr inbounds i16, ptr %77, i64 24
  call void @llvm.memcpy.p0.p0.i64(ptr align 2 %76, ptr align 2 %78, i64 16, i1 false)
  %79 = load ptr, ptr %9, align 8, !tbaa !20
  %80 = getelementptr inbounds i16, ptr %79, i64 48
  %81 = load ptr, ptr %11, align 8, !tbaa !20
  %82 = getelementptr inbounds i16, ptr %81, i64 40
  call void @llvm.memcpy.p0.p0.i64(ptr align 2 %80, ptr align 2 %82, i64 16, i1 false)
  %83 = load ptr, ptr %9, align 8, !tbaa !20
  %84 = getelementptr inbounds i16, ptr %83, i64 56
  %85 = load ptr, ptr %11, align 8, !tbaa !20
  %86 = getelementptr inbounds i16, ptr %85, i64 56
  call void @llvm.memcpy.p0.p0.i64(ptr align 2 %84, ptr align 2 %86, i64 16, i1 false)
  %87 = load ptr, ptr %8, align 8, !tbaa !8
  %88 = getelementptr inbounds i8, ptr %87, i64 64
  %89 = load ptr, ptr %9, align 8, !tbaa !20
  %90 = getelementptr inbounds i16, ptr %89, i64 64
  call void @_ZN13duckdb_brotli31BrotliConvertBitDepthsToSymbolsEPKhmPt(ptr noundef %88, i64 noundef 64, ptr noundef %90)
  call void @llvm.lifetime.start.p0(i64 8, ptr %12) #12
  %91 = load ptr, ptr %10, align 8, !tbaa !8
  call void @llvm.memset.p0.i64(ptr align 1 %91, i8 0, i64 64, i1 false)
  %92 = load ptr, ptr %10, align 8, !tbaa !8
  %93 = load ptr, ptr %8, align 8, !tbaa !8
  call void @llvm.memcpy.p0.p0.i64(ptr align 1 %92, ptr align 1 %93, i64 8, i1 false)
  %94 = load ptr, ptr %10, align 8, !tbaa !8
  %95 = getelementptr inbounds i8, ptr %94, i64 64
  %96 = load ptr, ptr %8, align 8, !tbaa !8
  %97 = getelementptr inbounds i8, ptr %96, i64 8
  call void @llvm.memcpy.p0.p0.i64(ptr align 1 %95, ptr align 1 %97, i64 8, i1 false)
  %98 = load ptr, ptr %10, align 8, !tbaa !8
  %99 = getelementptr inbounds i8, ptr %98, i64 128
  %100 = load ptr, ptr %8, align 8, !tbaa !8
  %101 = getelementptr inbounds i8, ptr %100, i64 16
  call void @llvm.memcpy.p0.p0.i64(ptr align 1 %99, ptr align 1 %101, i64 8, i1 false)
  %102 = load ptr, ptr %10, align 8, !tbaa !8
  %103 = getelementptr inbounds i8, ptr %102, i64 192
  %104 = load ptr, ptr %8, align 8, !tbaa !8
  %105 = getelementptr inbounds i8, ptr %104, i64 24
  call void @llvm.memcpy.p0.p0.i64(ptr align 1 %103, ptr align 1 %105, i64 8, i1 false)
  %106 = load ptr, ptr %10, align 8, !tbaa !8
  %107 = getelementptr inbounds i8, ptr %106, i64 384
  %108 = load ptr, ptr %8, align 8, !tbaa !8
  %109 = getelementptr inbounds i8, ptr %108, i64 32
  call void @llvm.memcpy.p0.p0.i64(ptr align 1 %107, ptr align 1 %109, i64 8, i1 false)
  store i64 0, ptr %12, align 8, !tbaa !10
  br label %110

110:                                              ; preds = %144, %3
  %111 = load i64, ptr %12, align 8, !tbaa !10
  %112 = icmp ult i64 %111, 8
  br i1 %112, label %113, label %147

113:                                              ; preds = %110
  %114 = load ptr, ptr %8, align 8, !tbaa !8
  %115 = load i64, ptr %12, align 8, !tbaa !10
  %116 = add i64 40, %115
  %117 = getelementptr inbounds nuw i8, ptr %114, i64 %116
  %118 = load i8, ptr %117, align 1, !tbaa !18
  %119 = load ptr, ptr %10, align 8, !tbaa !8
  %120 = load i64, ptr %12, align 8, !tbaa !10
  %121 = mul i64 8, %120
  %122 = add i64 128, %121
  %123 = getelementptr inbounds nuw i8, ptr %119, i64 %122
  store i8 %118, ptr %123, align 1, !tbaa !18
  %124 = load ptr, ptr %8, align 8, !tbaa !8
  %125 = load i64, ptr %12, align 8, !tbaa !10
  %126 = add i64 48, %125
  %127 = getelementptr inbounds nuw i8, ptr %124, i64 %126
  %128 = load i8, ptr %127, align 1, !tbaa !18
  %129 = load ptr, ptr %10, align 8, !tbaa !8
  %130 = load i64, ptr %12, align 8, !tbaa !10
  %131 = mul i64 8, %130
  %132 = add i64 256, %131
  %133 = getelementptr inbounds nuw i8, ptr %129, i64 %132
  store i8 %128, ptr %133, align 1, !tbaa !18
  %134 = load ptr, ptr %8, align 8, !tbaa !8
  %135 = load i64, ptr %12, align 8, !tbaa !10
  %136 = add i64 56, %135
  %137 = getelementptr inbounds nuw i8, ptr %134, i64 %136
  %138 = load i8, ptr %137, align 1, !tbaa !18
  %139 = load ptr, ptr %10, align 8, !tbaa !8
  %140 = load i64, ptr %12, align 8, !tbaa !10
  %141 = mul i64 8, %140
  %142 = add i64 448, %141
  %143 = getelementptr inbounds nuw i8, ptr %139, i64 %142
  store i8 %138, ptr %143, align 1, !tbaa !18
  br label %144

144:                                              ; preds = %113
  %145 = load i64, ptr %12, align 8, !tbaa !10
  %146 = add i64 %145, 1
  store i64 %146, ptr %12, align 8, !tbaa !10
  br label %110, !llvm.loop !44

147:                                              ; preds = %110
  %148 = load ptr, ptr %10, align 8, !tbaa !8
  %149 = load ptr, ptr %4, align 8, !tbaa !3
  %150 = getelementptr inbounds nuw %"struct.duckdb_brotli::BrotliOnePassArena", ptr %149, i32 0, i32 7
  %151 = getelementptr inbounds [513 x %"struct.duckdb_brotli::HuffmanTree"], ptr %150, i64 0, i64 0
  %152 = load ptr, ptr %5, align 8, !tbaa !16
  %153 = load ptr, ptr %6, align 8, !tbaa !8
  call void @_ZN13duckdb_brotli22BrotliStoreHuffmanTreeEPKhmPNS_11HuffmanTreeEPmPh(ptr noundef %148, i64 noundef 704, ptr noundef %151, ptr noundef %152, ptr noundef %153)
  call void @llvm.lifetime.end.p0(i64 8, ptr %12) #12
  %154 = load ptr, ptr %8, align 8, !tbaa !8
  %155 = getelementptr inbounds i8, ptr %154, i64 64
  %156 = load ptr, ptr %4, align 8, !tbaa !3
  %157 = getelementptr inbounds nuw %"struct.duckdb_brotli::BrotliOnePassArena", ptr %156, i32 0, i32 7
  %158 = getelementptr inbounds [513 x %"struct.duckdb_brotli::HuffmanTree"], ptr %157, i64 0, i64 0
  %159 = load ptr, ptr %5, align 8, !tbaa !16
  %160 = load ptr, ptr %6, align 8, !tbaa !8
  call void @_ZN13duckdb_brotli22BrotliStoreHuffmanTreeEPKhmPNS_11HuffmanTreeEPmPh(ptr noundef %155, i64 noundef 64, ptr noundef %158, ptr noundef %159, ptr noundef %160)
  call void @llvm.lifetime.end.p0(i64 8, ptr %11) #12
  call void @llvm.lifetime.end.p0(i64 8, ptr %10) #12
  call void @llvm.lifetime.end.p0(i64 8, ptr %9) #12
  call void @llvm.lifetime.end.p0(i64 8, ptr %8) #12
  call void @llvm.lifetime.end.p0(i64 8, ptr %7) #12
  ret void
}